; Function Attrs: mustprogress nofree norecurse nosync nounwind willreturn memory(argmem: read) uwtable
define noundef nonnull align 8 dereferenceable(8) ptr @_ZNK32pxrInternal_v0_24__pxrReserved__19HdDataSourceLocator10GetElementEm(ptr noundef nonnull readonly align 8 dereferenceable(56) %0, i64 noundef %1) local_unnamed_addr #5 align 2 {
  %3 = getelementptr inbounds nuw i8, ptr %0, i64 52
  %4 = load i32, ptr %3, align 4
  %5 = icmp ult i32 %4, 7
  %6 = load ptr, ptr %0, align 8
  %spec.select.i.i.i = select i1 %5, ptr %0, ptr %6
  %7 = getelementptr inbounds %"class.pxrInternal_v0_24__pxrReserved__::TfToken", ptr %spec.select.i.i.i, i64 %1
  ret ptr %7
}